; Function Attrs: mustprogress uwtable
define internal void @_ZN5faiss13ThreadedIndexIN12_GLOBAL__N_19MockIndexEE5resetEv(ptr noundef nonnull align 8 captures(none) dereferenceable(113) %0) unnamed_addr #2 align 2 personality ptr @__gxx_personality_v0 {
  %2 = alloca %"class.std::function", align 8
  %3 = getelementptr inbounds nuw i8, ptr %2, i64 16
  %4 = getelementptr inbounds nuw i8, ptr %2, i64 24
  call void @llvm.memset.p0.i64(ptr noundef nonnull align 8 dereferenceable(32) %2, i8 0, i64 16, i1 false)
  store ptr @_ZNSt17_Function_handlerIFviPN12_GLOBAL__N_19MockIndexEEZN5faiss13ThreadedIndexIS1_E5resetEvEUliS2_E_E9_M_invokeERKSt9_Any_dataOiOS2_, ptr %4, align 8, !tbaa !57
  store ptr @_ZNSt17_Function_handlerIFviPN12_GLOBAL__N_19MockIndexEEZN5faiss13ThreadedIndexIS1_E5resetEvEUliS2_E_E10_M_managerERSt9_Any_dataRKS9_St18_Manager_operation, ptr %3, align 8, !tbaa !60
  invoke fastcc void @_ZN5faiss13ThreadedIndexIN12_GLOBAL__N_19MockIndexEE10runOnIndexESt8functionIFviPS2_EE(ptr noundef nonnull align 8 dereferenceable(113) %0, ptr noundef %2)
          to label %5 unwind label %14

5:                                                ; preds = %1
  %6 = load ptr, ptr %3, align 8, !tbaa !60
  %.not.i = icmp eq ptr %6, null
  br i1 %.not.i, label %_ZNSt14_Function_baseD2Ev.exit, label %7

7:                                                ; preds = %5
  %8 = invoke noundef zeroext i1 %6(ptr noundef nonnull align 8 dereferenceable(32) %2, ptr noundef nonnull align 8 dereferenceable(32) %2, i32 noundef 3)
          to label %_ZNSt14_Function_baseD2Ev.exit unwind label %9

9:                                                ; preds = %7
  %10 = landingpad { ptr, i32 }
          catch ptr null
  %11 = extractvalue { ptr, i32 } %10, 0
  call void @__clang_call_terminate(ptr %11) #34
  unreachable

_ZNSt14_Function_baseD2Ev.exit:                   ; preds = %5, %7
  %12 = getelementptr inbounds nuw i8, ptr %0, i64 16
  store i64 0, ptr %12, align 8, !tbaa !15
  %13 = getelementptr inbounds nuw i8, ptr %0, i64 25
  store i8 0, ptr %13, align 1, !tbaa !17
  ret void

14:                                               ; preds = %1
  %15 = landingpad { ptr, i32 }
          cleanup
  %16 = load ptr, ptr %3, align 8, !tbaa !60
  %.not.i2 = icmp eq ptr %16, null
  br i1 %.not.i2, label %_ZNSt14_Function_baseD2Ev.exit3, label %17

17:                                               ; preds = %14
  %18 = invoke noundef zeroext i1 %16(ptr noundef nonnull align 8 dereferenceable(32) %2, ptr noundef nonnull align 8 dereferenceable(32) %2, i32 noundef 3)
          to label %_ZNSt14_Function_baseD2Ev.exit3 unwind label %19

19:                                               ; preds = %17
  %20 = landingpad { ptr, i32 }
          catch ptr null
  %21 = extractvalue { ptr, i32 } %20, 0
  call void @__clang_call_terminate(ptr %21) #34
  unreachable

_ZNSt14_Function_baseD2Ev.exit3:                  ; preds = %14, %17
  resume { ptr, i32 } %15
}